; Function Attrs: mustprogress nounwind uwtable
define dso_local void @_ZN4llvm16TargetPassConfigD2Ev(ptr noundef nonnull align 8 dereferenceable(134) %0) unnamed_addr #0 align 2 {
  store ptr getelementptr inbounds inrange(-16, 456) (i8, ptr @_ZTVN4llvm16TargetPassConfigE, i64 16), ptr %0, align 8
  %2 = getelementptr inbounds nuw i8, ptr %0, i64 120
  %3 = load ptr, ptr %2, align 8
  %4 = icmp eq ptr %3, null
  br i1 %4, label %17, label %5

5:                                                ; preds = %1
  %6 = getelementptr inbounds nuw i8, ptr %3, i64 24
  %7 = tail call noundef i64 @_ZNK4llvm15SmallVectorBaseIjE4sizeEv(ptr noundef nonnull align 8 dereferenceable(16) %6) #26
  %8 = load ptr, ptr %6, align 8
  %9 = getelementptr inbounds i8, ptr %3, i64 40
  %10 = icmp eq ptr %8, %9
  br i1 %10, label %_ZN4llvm14PassConfigImplD2Ev.exit, label %11

11:                                               ; preds = %5
  tail call void @free(ptr noundef %8) #26
  br label %_ZN4llvm14PassConfigImplD2Ev.exit

_ZN4llvm14PassConfigImplD2Ev.exit:                ; preds = %5, %11
  %12 = load ptr, ptr %3, align 8
  %13 = getelementptr inbounds nuw i8, ptr %3, i64 16
  %14 = load i32, ptr %13, align 8
  %15 = zext i32 %14 to i64
  %16 = mul nuw nsw i64 %15, 24
  tail call void @_ZN4llvm17deallocate_bufferEPvmm(ptr noundef %12, i64 noundef %16, i64 noundef 8) #26
  tail call void @_ZdlPvm(ptr noundef nonnull %3, i64 noundef 136) #29
  br label %17

17:                                               ; preds = %_ZN4llvm14PassConfigImplD2Ev.exit, %1
  tail call void @_ZN4llvm13ImmutablePassD2Ev(ptr noundef nonnull align 8 dereferenceable(28) %0) #26
  ret void
}